target datalayout = "e-m:e-p270:32:32-p271:32:32-p272:64:64-i64:64-i128:128-f80:128-n8:16:32:64-S128"
target triple = "x86_64-pc-linux-gnu"

%struct.path_walk_context = type { ptr, ptr, ptr, %struct.strmap, %struct.prio_queue, %struct.strset }
%struct.strmap = type { %struct.hashmap, ptr, i8 }
%struct.hashmap = type { ptr, ptr, ptr, i32, i32, i32, i32, i8 }
%struct.prio_queue = type { ptr, i64, ptr, i64, i64, ptr }
%struct.strset = type { %struct.strmap }
%struct.type_and_oid_list = type { i32, %struct.oid_array, i32 }
%struct.oid_array = type { ptr, i64, i64, i32 }

; Function Attrs: nounwind uwtable
define internal i32 @compare_by_type(ptr noundef %0, ptr noundef %1, ptr noundef %2) #0 {
  %4 = alloca i32, align 4
  %5 = alloca ptr, align 8
  %6 = alloca ptr, align 8
  %7 = alloca ptr, align 8
  %8 = alloca ptr, align 8
  %9 = alloca ptr, align 8
  %10 = alloca ptr, align 8
  %11 = alloca ptr, align 8
  %12 = alloca ptr, align 8
  %13 = alloca i32, align 4
  store ptr %0, ptr %5, align 8, !tbaa !116
  store ptr %1, ptr %6, align 8, !tbaa !116
  store ptr %2, ptr %7, align 8, !tbaa !116
  call void @llvm.lifetime.start.p0(i64 8, ptr %8) #9
  call void @llvm.lifetime.start.p0(i64 8, ptr %9) #9
  call void @llvm.lifetime.start.p0(i64 8, ptr %10) #9
  %14 = load ptr, ptr %5, align 8, !tbaa !116
  store ptr %14, ptr %10, align 8, !tbaa !89
  call void @llvm.lifetime.start.p0(i64 8, ptr %11) #9
  %15 = load ptr, ptr %6, align 8, !tbaa !116
  store ptr %15, ptr %11, align 8, !tbaa !89
  call void @llvm.lifetime.start.p0(i64 8, ptr %12) #9
  %16 = load ptr, ptr %7, align 8, !tbaa !116
  store ptr %16, ptr %12, align 8, !tbaa !117
  %17 = load ptr, ptr %12, align 8, !tbaa !117
  %18 = getelementptr inbounds nuw %struct.path_walk_context, ptr %17, i32 0, i32 3
  %19 = load ptr, ptr %10, align 8, !tbaa !89
  %20 = call ptr @strmap_get(ptr noundef %18, ptr noundef %19)
  store ptr %20, ptr %8, align 8, !tbaa !82
  %21 = load ptr, ptr %12, align 8, !tbaa !117
  %22 = getelementptr inbounds nuw %struct.path_walk_context, ptr %21, i32 0, i32 3
  %23 = load ptr, ptr %11, align 8, !tbaa !89
  %24 = call ptr @strmap_get(ptr noundef %22, ptr noundef %23)
  store ptr %24, ptr %9, align 8, !tbaa !82
  %25 = load ptr, ptr %8, align 8, !tbaa !82
  %26 = icmp ne ptr %25, null
  br i1 %26, label %27, label %38

27:                                               ; preds = %3
  %28 = load ptr, ptr %9, align 8, !tbaa !82
  %29 = icmp ne ptr %28, null
  br i1 %29, label %30, label %38

30:                                               ; preds = %27
  %31 = load ptr, ptr %8, align 8, !tbaa !82
  %32 = getelementptr inbounds nuw %struct.type_and_oid_list, ptr %31, i32 0, i32 0
  %33 = load i32, ptr %32, align 8, !tbaa !84
  %34 = load ptr, ptr %9, align 8, !tbaa !82
  %35 = getelementptr inbounds nuw %struct.type_and_oid_list, ptr %34, i32 0, i32 0
  %36 = load i32, ptr %35, align 8, !tbaa !84
  %37 = icmp eq i32 %33, %36
  br i1 %37, label %38, label %42

38:                                               ; preds = %30, %27, %3
  %39 = load ptr, ptr %10, align 8, !tbaa !89
  %40 = load ptr, ptr %11, align 8, !tbaa !89
  %41 = call i32 @strcmp(ptr noundef %39, ptr noundef %40) #11
  store i32 %41, ptr %4, align 4
  store i32 1, ptr %13, align 4
  br label %67

42:                                               ; preds = %30
  %43 = load ptr, ptr %8, align 8, !tbaa !82
  %44 = getelementptr inbounds nuw %struct.type_and_oid_list, ptr %43, i32 0, i32 0
  %45 = load i32, ptr %44, align 8, !tbaa !84
  %46 = icmp eq i32 %45, 4
  br i1 %46, label %47, label %48

47:                                               ; preds = %42
  store i32 -1, ptr %4, align 4
  store i32 1, ptr %13, align 4
  br label %67

48:                                               ; preds = %42
  %49 = load ptr, ptr %9, align 8, !tbaa !82
  %50 = getelementptr inbounds nuw %struct.type_and_oid_list, ptr %49, i32 0, i32 0
  %51 = load i32, ptr %50, align 8, !tbaa !84
  %52 = icmp eq i32 %51, 4
  br i1 %52, label %53, label %54

53:                                               ; preds = %48
  store i32 1, ptr %4, align 4
  store i32 1, ptr %13, align 4
  br label %67

54:                                               ; preds = %48
  %55 = load ptr, ptr %8, align 8, !tbaa !82
  %56 = getelementptr inbounds nuw %struct.type_and_oid_list, ptr %55, i32 0, i32 0
  %57 = load i32, ptr %56, align 8, !tbaa !84
  %58 = icmp eq i32 %57, 3
  br i1 %58, label %59, label %60

59:                                               ; preds = %54
  store i32 -1, ptr %4, align 4
  store i32 1, ptr %13, align 4
  br label %67

60:                                               ; preds = %54
  %61 = load ptr, ptr %9, align 8, !tbaa !82
  %62 = getelementptr inbounds nuw %struct.type_and_oid_list, ptr %61, i32 0, i32 0
  %63 = load i32, ptr %62, align 8, !tbaa !84
  %64 = icmp eq i32 %63, 3
  br i1 %64, label %65, label %66

65:                                               ; preds = %60
  store i32 1, ptr %4, align 4
  store i32 1, ptr %13, align 4
  br label %67

66:                                               ; preds = %60
  store i32 0, ptr %4, align 4
  store i32 1, ptr %13, align 4
  br label %67

67:                                               ; preds = %66, %65, %59, %53, %47, %38
  call void @llvm.lifetime.end.p0(i64 8, ptr %12) #9
  call void @llvm.lifetime.end.p0(i64 8, ptr %11) #9
  call void @llvm.lifetime.end.p0(i64 8, ptr %10) #9
  call void @llvm.lifetime.end.p0(i64 8, ptr %9) #9
  call void @llvm.lifetime.end.p0(i64 8, ptr %8) #9
  %68 = load i32, ptr %4, align 4
  ret i32 %68
}