; Function Attrs: nounwind uwtable
define internal i32 @compare_by_type(ptr noundef %0, ptr noundef %1, ptr noundef %2) #0 {
  %4 = getelementptr inbounds nuw i8, ptr %2, i64 24
  %5 = tail call ptr @strmap_get(ptr noundef nonnull %4, ptr noundef %0) #13
  %6 = tail call ptr @strmap_get(ptr noundef nonnull %4, ptr noundef %1) #13
  %7 = icmp ne ptr %5, null
  %8 = icmp ne ptr %6, null
  %or.cond = select i1 %7, i1 %8, i1 false
  br i1 %or.cond, label %9, label %13

9:                                                ; preds = %3
  %10 = load i32, ptr %5, align 8, !tbaa !77
  %11 = load i32, ptr %6, align 8, !tbaa !77
  %12 = icmp eq i32 %10, %11
  br i1 %12, label %13, label %15

13:                                               ; preds = %9, %3
  %14 = tail call i32 @strcmp(ptr noundef nonnull dereferenceable(1) %0, ptr noundef nonnull dereferenceable(1) %1) #15
  br label %23

15:                                               ; preds = %9
  %16 = icmp eq i32 %10, 4
  br i1 %16, label %23, label %17

17:                                               ; preds = %15
  %18 = icmp eq i32 %11, 4
  br i1 %18, label %23, label %19

19:                                               ; preds = %17
  %20 = icmp eq i32 %10, 3
  br i1 %20, label %23, label %21

21:                                               ; preds = %19
  %22 = icmp eq i32 %11, 3
  %. = zext i1 %22 to i32
  br label %23

23:                                               ; preds = %21, %19, %17, %15, %13
  %.0 = phi i32 [ %14, %13 ], [ -1, %15 ], [ 1, %17 ], [ -1, %19 ], [ %., %21 ]
  ret i32 %.0
}